; Function Attrs: mustprogress uwtable
define noundef ptr @_ZN7rocksdb29GetColumnFamilyUserComparatorEPNS_18ColumnFamilyHandleE(ptr noundef %column_family) local_unnamed_addr #7 {
entry:
  %cmp.not = icmp eq ptr %column_family, null
  br i1 %cmp.not, label %return, label %if.then

if.then:                                          ; preds = %entry
  %vtable = load ptr, ptr %column_family, align 8
  %vfn = getelementptr inbounds i8, ptr %vtable, i64 40
  %0 = load ptr, ptr %vfn, align 8
  %call = tail call noundef ptr %0(ptr noundef nonnull align 8 dereferenceable(8) %column_family)
  br label %return

return:                                           ; preds = %entry, %if.then
  %retval.0 = phi ptr [ %call, %if.then ], [ null, %entry ]
  ret ptr %retval.0
}